target datalayout = "e-m:e-p270:32:32-p271:32:32-p272:64:64-i64:64-i128:128-f80:128-n8:16:32:64-S128"
target triple = "x86_64-pc-linux-gnu"

; Function Attrs: nounwind uwtable
define internal i32 @validate_number_field(ptr noundef %0, i64 noundef %1) #0 {
  %3 = alloca i32, align 4
  %4 = alloca ptr, align 8
  %5 = alloca i64, align 8
  %6 = alloca i8, align 1
  %7 = alloca i32, align 4
  %8 = alloca i64, align 8
  store ptr %0, ptr %4, align 8, !tbaa !15
  store i64 %1, ptr %5, align 8, !tbaa !46
  call void @llvm.lifetime.start.p0(i64 1, ptr %6) #10
  %9 = load ptr, ptr %4, align 8, !tbaa !15
  %10 = getelementptr inbounds i8, ptr %9, i64 0
  %11 = load i8, ptr %10, align 1, !tbaa !17
  store i8 %11, ptr %6, align 1, !tbaa !17
  %12 = load i8, ptr %6, align 1, !tbaa !17
  %13 = zext i8 %12 to i32
  %14 = icmp eq i32 %13, 128
  br i1 %14, label %23, label %15

15:                                               ; preds = %2
  %16 = load i8, ptr %6, align 1, !tbaa !17
  %17 = zext i8 %16 to i32
  %18 = icmp eq i32 %17, 255
  br i1 %18, label %23, label %19

19:                                               ; preds = %15
  %20 = load i8, ptr %6, align 1, !tbaa !17
  %21 = zext i8 %20 to i32
  %22 = icmp eq i32 %21, 0
  br i1 %22, label %23, label %24

23:                                               ; preds = %19, %15, %2
  store i32 1, ptr %3, align 4
  store i32 1, ptr %7, align 4
  br label %90

24:                                               ; preds = %19
  call void @llvm.lifetime.start.p0(i64 8, ptr %8) #10
  store i64 0, ptr %8, align 8, !tbaa !46
  br label %25

25:                                               ; preds = %38, %24
  %26 = load i64, ptr %8, align 8, !tbaa !46
  %27 = load i64, ptr %5, align 8, !tbaa !46
  %28 = icmp ult i64 %26, %27
  br i1 %28, label %29, label %36

29:                                               ; preds = %25
  %30 = load ptr, ptr %4, align 8, !tbaa !15
  %31 = load i64, ptr %8, align 8, !tbaa !46
  %32 = getelementptr inbounds nuw i8, ptr %30, i64 %31
  %33 = load i8, ptr %32, align 1, !tbaa !17
  %34 = sext i8 %33 to i32
  %35 = icmp eq i32 %34, 32
  br label %36

36:                                               ; preds = %29, %25
  %37 = phi i1 [ false, %25 ], [ %35, %29 ]
  br i1 %37, label %38, label %41

38:                                               ; preds = %36
  %39 = load i64, ptr %8, align 8, !tbaa !46
  %40 = add i64 %39, 1
  store i64 %40, ptr %8, align 8, !tbaa !46
  br label %25, !llvm.loop !81

41:                                               ; preds = %36
  br label %42

42:                                               ; preds = %62, %41
  %43 = load i64, ptr %8, align 8, !tbaa !46
  %44 = load i64, ptr %5, align 8, !tbaa !46
  %45 = icmp ult i64 %43, %44
  br i1 %45, label %46, label %60

46:                                               ; preds = %42
  %47 = load ptr, ptr %4, align 8, !tbaa !15
  %48 = load i64, ptr %8, align 8, !tbaa !46
  %49 = getelementptr inbounds nuw i8, ptr %47, i64 %48
  %50 = load i8, ptr %49, align 1, !tbaa !17
  %51 = sext i8 %50 to i32
  %52 = icmp sge i32 %51, 48
  br i1 %52, label %53, label %60

53:                                               ; preds = %46
  %54 = load ptr, ptr %4, align 8, !tbaa !15
  %55 = load i64, ptr %8, align 8, !tbaa !46
  %56 = getelementptr inbounds nuw i8, ptr %54, i64 %55
  %57 = load i8, ptr %56, align 1, !tbaa !17
  %58 = sext i8 %57 to i32
  %59 = icmp sle i32 %58, 55
  br label %60

60:                                               ; preds = %53, %46, %42
  %61 = phi i1 [ false, %46 ], [ false, %42 ], [ %59, %53 ]
  br i1 %61, label %62, label %65

62:                                               ; preds = %60
  %63 = load i64, ptr %8, align 8, !tbaa !46
  %64 = add i64 %63, 1
  store i64 %64, ptr %8, align 8, !tbaa !46
  br label %42, !llvm.loop !82

65:                                               ; preds = %60
  br label %66

66:                                               ; preds = %85, %65
  %67 = load i64, ptr %8, align 8, !tbaa !46
  %68 = load i64, ptr %5, align 8, !tbaa !46
  %69 = icmp ult i64 %67, %68
  br i1 %69, label %70, label %88

70:                                               ; preds = %66
  %71 = load ptr, ptr %4, align 8, !tbaa !15
  %72 = load i64, ptr %8, align 8, !tbaa !46
  %73 = getelementptr inbounds nuw i8, ptr %71, i64 %72
  %74 = load i8, ptr %73, align 1, !tbaa !17
  %75 = sext i8 %74 to i32
  %76 = icmp ne i32 %75, 32
  br i1 %76, label %77, label %85

77:                                               ; preds = %70
  %78 = load ptr, ptr %4, align 8, !tbaa !15
  %79 = load i64, ptr %8, align 8, !tbaa !46
  %80 = getelementptr inbounds nuw i8, ptr %78, i64 %79
  %81 = load i8, ptr %80, align 1, !tbaa !17
  %82 = sext i8 %81 to i32
  %83 = icmp ne i32 %82, 0
  br i1 %83, label %84, label %85

84:                                               ; preds = %77
  store i32 0, ptr %3, align 4
  store i32 1, ptr %7, align 4
  br label %89

85:                                               ; preds = %77, %70
  %86 = load i64, ptr %8, align 8, !tbaa !46
  %87 = add i64 %86, 1
  store i64 %87, ptr %8, align 8, !tbaa !46
  br label %66, !llvm.loop !83

88:                                               ; preds = %66
  store i32 1, ptr %3, align 4
  store i32 1, ptr %7, align 4
  br label %89

89:                                               ; preds = %88, %84
  call void @llvm.lifetime.end.p0(i64 8, ptr %8) #10
  br label %90

90:                                               ; preds = %89, %23
  call void @llvm.lifetime.end.p0(i64 1, ptr %6) #10
  %91 = load i32, ptr %3, align 4
  ret i32 %91
}