; Function Attrs: nofree norecurse nosync nounwind memory(argmem: read) uwtable
define internal fastcc range(i32 0, 2) i32 @validate_number_field(ptr noundef nonnull readonly captures(none) %0, i64 noundef range(i64 8, 13) %1) unnamed_addr #5 {
  %3 = load i8, ptr %0, align 1, !tbaa !4
  switch i8 %3, label %.preheader [
    i8 -1, label %.loopexit
    i8 -128, label %.loopexit
    i8 0, label %.loopexit
  ]

.preheader:                                       ; preds = %2, %7
  %.035 = phi i64 [ %8, %7 ], [ 0, %2 ]
  %4 = getelementptr inbounds nuw i8, ptr %0, i64 %.035
  %5 = load i8, ptr %4, align 1, !tbaa !4
  %6 = icmp eq i8 %5, 32
  br i1 %6, label %7, label %.critedge

7:                                                ; preds = %.preheader
  %8 = add nuw nsw i64 %.035, 1
  %exitcond.not = icmp eq i64 %8, %1
  br i1 %exitcond.not, label %.loopexit, label %.preheader, !llvm.loop !14

.critedge:                                        ; preds = %.preheader
  %9 = icmp samesign ult i64 %.035, %1
  br i1 %9, label %.lr.ph, label %.critedge7

.lr.ph:                                           ; preds = %.critedge, %13
  %.136 = phi i64 [ %14, %13 ], [ %.035, %.critedge ]
  %10 = getelementptr inbounds nuw i8, ptr %0, i64 %.136
  %11 = load i8, ptr %10, align 1, !tbaa !4
  %12 = and i8 %11, -8
  %or.cond = icmp eq i8 %12, 48
  br i1 %or.cond, label %13, label %.critedge7

13:                                               ; preds = %.lr.ph
  %14 = add nuw nsw i64 %.136, 1
  %exitcond44.not = icmp eq i64 %14, %1
  br i1 %exitcond44.not, label %.loopexit, label %.lr.ph, !llvm.loop !15

.critedge7:                                       ; preds = %.lr.ph, %.critedge
  %.1.lcssa = phi i64 [ %.035, %.critedge ], [ %.136, %.lr.ph ]
  %15 = icmp samesign ult i64 %.1.lcssa, %1
  br i1 %15, label %.lr.ph40, label %.loopexit

.lr.ph40:                                         ; preds = %.critedge7, %18
  %.239 = phi i64 [ %19, %18 ], [ %.1.lcssa, %.critedge7 ]
  %16 = getelementptr inbounds nuw i8, ptr %0, i64 %.239
  %17 = load i8, ptr %16, align 1, !tbaa !4
  switch i8 %17, label %.loopexit [
    i8 32, label %18
    i8 0, label %18
  ]

18:                                               ; preds = %.lr.ph40, %.lr.ph40
  %19 = add nuw nsw i64 %.239, 1
  %exitcond45.not = icmp eq i64 %19, %1
  br i1 %exitcond45.not, label %.loopexit, label %.lr.ph40, !llvm.loop !16

.loopexit:                                        ; preds = %7, %13, %18, %.lr.ph40, %.critedge7, %2, %2, %2
  %.030 = phi i32 [ 1, %2 ], [ 1, %2 ], [ 1, %2 ], [ 1, %.critedge7 ], [ 1, %18 ], [ 0, %.lr.ph40 ], [ 1, %13 ], [ 1, %7 ]
  ret i32 %.030
}